target datalayout = "e-m:e-p270:32:32-p271:32:32-p272:64:64-i64:64-i128:128-f80:128-n8:16:32:64-S128"
target triple = "x86_64-pc-linux-gnu"

%struct.CType = type { i32, i32, i16, i16, %struct.GCRef }
%struct.GCRef = type { i64 }
%struct.CTState = type { ptr, i32, i32, ptr, ptr, ptr, %struct.CCallback, [128 x i16] }
%struct.CCallback = type { [8 x %union.FPRCBArg], [8 x i64], ptr, ptr, ptr, i32, i32, i32 }
%union.FPRCBArg = type { double }
%struct.GCstr = type { %struct.GCRef, i8, i8, i8, i8, i32, i32, i32 }

@lj_obj_typename = external hidden constant [12 x ptr], align 16

; Function Attrs: noreturn nounwind uwtable
define internal void @cconv_err_conv(ptr noundef %0, ptr noundef %1, ptr noundef %2, i32 noundef %3) #5 {
  %5 = alloca ptr, align 8
  %6 = alloca ptr, align 8
  %7 = alloca ptr, align 8
  %8 = alloca i32, align 4
  %9 = alloca ptr, align 8
  %10 = alloca ptr, align 8
  store ptr %0, ptr %5, align 8, !tbaa !4
  store ptr %1, ptr %6, align 8, !tbaa !9
  store ptr %2, ptr %7, align 8, !tbaa !9
  store i32 %3, ptr %8, align 4, !tbaa !11
  call void @llvm.lifetime.start.p0(i64 8, ptr %9) #9
  %11 = load ptr, ptr %5, align 8, !tbaa !4
  %12 = getelementptr inbounds nuw %struct.CTState, ptr %11, i32 0, i32 3
  %13 = load ptr, ptr %12, align 8, !tbaa !34
  %14 = load ptr, ptr %6, align 8, !tbaa !9
  %15 = load ptr, ptr %5, align 8, !tbaa !4
  %16 = getelementptr inbounds nuw %struct.CTState, ptr %15, i32 0, i32 0
  %17 = load ptr, ptr %16, align 8, !tbaa !42
  %18 = ptrtoint ptr %14 to i64
  %19 = ptrtoint ptr %17 to i64
  %20 = sub i64 %18, %19
  %21 = sdiv exact i64 %20, 24
  %22 = trunc i64 %21 to i32
  %23 = call ptr @lj_ctype_repr(ptr noundef %13, i32 noundef %22, ptr noundef null)
  %24 = getelementptr inbounds %struct.GCstr, ptr %23, i64 1
  store ptr %24, ptr %9, align 8, !tbaa !21
  call void @llvm.lifetime.start.p0(i64 8, ptr %10) #9
  %25 = load i32, ptr %8, align 4, !tbaa !11
  %26 = and i32 %25, 2
  %27 = icmp ne i32 %26, 0
  br i1 %27, label %28, label %48

28:                                               ; preds = %4
  %29 = load ptr, ptr %7, align 8, !tbaa !9
  %30 = getelementptr inbounds nuw %struct.CType, ptr %29, i32 0, i32 0
  %31 = load i32, ptr %30, align 8, !tbaa !13
  %32 = lshr i32 %31, 28
  %33 = icmp eq i32 %32, 0
  br i1 %33, label %34, label %35

34:                                               ; preds = %28
  br label %42

35:                                               ; preds = %28
  %36 = load ptr, ptr %7, align 8, !tbaa !9
  %37 = getelementptr inbounds nuw %struct.CType, ptr %36, i32 0, i32 0
  %38 = load i32, ptr %37, align 8, !tbaa !13
  %39 = lshr i32 %38, 28
  %40 = icmp eq i32 %39, 3
  %41 = select i1 %40, i32 4, i32 0
  br label %42

42:                                               ; preds = %35, %34
  %43 = phi i32 [ 3, %34 ], [ %41, %35 ]
  %44 = add nsw i32 1, %43
  %45 = sext i32 %44 to i64
  %46 = getelementptr inbounds [12 x ptr], ptr @lj_obj_typename, i64 0, i64 %45
  %47 = load ptr, ptr %46, align 8, !tbaa !21
  store ptr %47, ptr %10, align 8, !tbaa !21
  br label %63

48:                                               ; preds = %4
  %49 = load ptr, ptr %5, align 8, !tbaa !4
  %50 = getelementptr inbounds nuw %struct.CTState, ptr %49, i32 0, i32 3
  %51 = load ptr, ptr %50, align 8, !tbaa !34
  %52 = load ptr, ptr %7, align 8, !tbaa !9
  %53 = load ptr, ptr %5, align 8, !tbaa !4
  %54 = getelementptr inbounds nuw %struct.CTState, ptr %53, i32 0, i32 0
  %55 = load ptr, ptr %54, align 8, !tbaa !42
  %56 = ptrtoint ptr %52 to i64
  %57 = ptrtoint ptr %55 to i64
  %58 = sub i64 %56, %57
  %59 = sdiv exact i64 %58, 24
  %60 = trunc i64 %59 to i32
  %61 = call ptr @lj_ctype_repr(ptr noundef %51, i32 noundef %60, ptr noundef null)
  %62 = getelementptr inbounds %struct.GCstr, ptr %61, i64 1
  store ptr %62, ptr %10, align 8, !tbaa !21
  br label %63

63:                                               ; preds = %48, %42
  %64 = load i32, ptr %8, align 4, !tbaa !11
  %65 = lshr i32 %64, 8
  %66 = icmp ne i32 %65, 0
  br i1 %66, label %67, label %75

67:                                               ; preds = %63
  %68 = load ptr, ptr %5, align 8, !tbaa !4
  %69 = getelementptr inbounds nuw %struct.CTState, ptr %68, i32 0, i32 3
  %70 = load ptr, ptr %69, align 8, !tbaa !34
  %71 = load i32, ptr %8, align 4, !tbaa !11
  %72 = lshr i32 %71, 8
  %73 = load ptr, ptr %10, align 8, !tbaa !21
  %74 = load ptr, ptr %9, align 8, !tbaa !21
  call void (ptr, i32, i32, ...) @lj_err_argv(ptr noundef %70, i32 noundef %72, i32 noundef 3239, ptr noundef %73, ptr noundef %74) #10
  unreachable

75:                                               ; preds = %63
  %76 = load ptr, ptr %5, align 8, !tbaa !4
  %77 = getelementptr inbounds nuw %struct.CTState, ptr %76, i32 0, i32 3
  %78 = load ptr, ptr %77, align 8, !tbaa !34
  %79 = load ptr, ptr %10, align 8, !tbaa !21
  %80 = load ptr, ptr %9, align 8, !tbaa !21
  call void (ptr, i32, ...) @lj_err_callerv(ptr noundef %78, i32 noundef 3239, ptr noundef %79, ptr noundef %80) #10
  unreachable
}