; Function Attrs: noreturn nounwind uwtable
define internal fastcc void @cconv_err_conv(ptr noundef readonly captures(none) %0, ptr noundef %1, ptr noundef %2, i32 noundef %3) unnamed_addr #5 {
  %5 = getelementptr inbounds nuw i8, ptr %0, i64 16
  %6 = load ptr, ptr %5, align 8, !tbaa !35
  %7 = load ptr, ptr %0, align 8, !tbaa !4
  %8 = ptrtoint ptr %1 to i64
  %9 = ptrtoint ptr %7 to i64
  %10 = sub i64 %8, %9
  %11 = sdiv exact i64 %10, 24
  %12 = trunc i64 %11 to i32
  %13 = tail call ptr @lj_ctype_repr(ptr noundef %6, i32 noundef %12, ptr noundef null) #9
  %14 = getelementptr inbounds nuw i8, ptr %13, i64 24
  %15 = and i32 %3, 2
  %.not = icmp eq i32 %15, 0
  br i1 %.not, label %24, label %16

16:                                               ; preds = %4
  %17 = load i32, ptr %2, align 8, !tbaa !17
  %18 = icmp ult i32 %17, 268435456
  %.mask = and i32 %17, -268435456
  %19 = icmp eq i32 %.mask, 805306368
  %20 = select i1 %19, i64 5, i64 1
  %21 = select i1 %18, i64 4, i64 %20
  %22 = getelementptr inbounds nuw [12 x ptr], ptr @lj_obj_typename, i64 0, i64 %21
  %23 = load ptr, ptr %22, align 8, !tbaa !36
  br label %34

24:                                               ; preds = %4
  %25 = load ptr, ptr %5, align 8, !tbaa !35
  %26 = load ptr, ptr %0, align 8, !tbaa !4
  %27 = ptrtoint ptr %2 to i64
  %28 = ptrtoint ptr %26 to i64
  %29 = sub i64 %27, %28
  %30 = sdiv exact i64 %29, 24
  %31 = trunc i64 %30 to i32
  %32 = tail call ptr @lj_ctype_repr(ptr noundef %25, i32 noundef %31, ptr noundef null) #9
  %33 = getelementptr inbounds nuw i8, ptr %32, i64 24
  br label %34

34:                                               ; preds = %24, %16
  %.0 = phi ptr [ %23, %16 ], [ %33, %24 ]
  %.not18 = icmp ult i32 %3, 256
  br i1 %.not18, label %38, label %35

35:                                               ; preds = %34
  %36 = lshr i32 %3, 8
  %37 = load ptr, ptr %5, align 8, !tbaa !35
  tail call void (ptr, i32, i32, ...) @lj_err_argv(ptr noundef %37, i32 noundef %36, i32 noundef 3239, ptr noundef %.0, ptr noundef nonnull %14) #11
  unreachable

38:                                               ; preds = %34
  %39 = load ptr, ptr %5, align 8, !tbaa !35
  tail call void (ptr, i32, ...) @lj_err_callerv(ptr noundef %39, i32 noundef 3239, ptr noundef %.0, ptr noundef nonnull %14) #11
  unreachable
}